#include <math.h>
#include <stdio.h>
#include <stdlib.h>
#include <string.h>

void main()
{
	int a[300],n=0,i=0,max,m=0,k=0;
	char b[300];
	for(i=0;;i++)
	{
		scanf("%d%c",&a[i],&b[i]);
		n++;
		if(b[i]!=',') break;
	}
	max=a[0];
	for(i=1;i<n;i++)
	{
		if(a[i]>max) max=a[i];
	}
	if(n==1) printf("No\n");
	else 
	{
		for(i=1;i<n;i++)
		{
			if(a[i]!=a[0]) 
			{
				k=1;
				break;
			}
		}
	if(k==0)printf("No\n");
	else
	{
	for(i=0;i<n;i++)
	{
		if(a[i]>m&&a[i]<max) m=a[i];
	}
	printf("%d\n",m);}
	
}}